; Function Attrs: mustprogress nofree norecurse nosync nounwind willreturn memory(read, inaccessiblemem: none) uwtable
define range(i32 0, 2) i32 @Aig_ManHasNoGaps(ptr noundef readonly captures(none) %0) local_unnamed_addr #6 {
  %2 = getelementptr i8, ptr %0, i64 32
  %.val = load ptr, ptr %2, align 8, !tbaa !21
  %3 = getelementptr i8, ptr %0, i64 156
  %.val4 = load i32, ptr %3, align 4, !tbaa !29
  %4 = getelementptr i8, ptr %.val, i64 4
  %.val.val = load i32, ptr %4, align 4, !tbaa !22
  %5 = sub nsw i32 %.val.val, %.val4
  %6 = getelementptr i8, ptr %0, i64 136
  %.val5 = load i32, ptr %6, align 8, !tbaa !30
  %7 = getelementptr i8, ptr %0, i64 140
  %.val6 = load i32, ptr %7, align 4, !tbaa !30
  %8 = getelementptr i8, ptr %0, i64 148
  %.val7 = load i32, ptr %8, align 4, !tbaa !30
  %9 = getelementptr i8, ptr %0, i64 152
  %.val8 = load i32, ptr %9, align 8, !tbaa !30
  %10 = add i32 %.val5, 1
  %11 = add i32 %10, %.val6
  %12 = add i32 %11, %.val7
  %13 = add i32 %12, %.val8
  %14 = icmp eq i32 %5, %13
  %15 = zext i1 %14 to i32
  ret i32 %15
}